target datalayout = "e-m:e-p270:32:32-p271:32:32-p272:64:64-i64:64-i128:128-f80:128-n8:16:32:64-S128"
target triple = "x86_64-pc-linux-gnu"

%struct.lua_State = type { %struct.GCRef, i8, i8, i8, i8, %struct.MRef, %struct.GCRef, ptr, ptr, %struct.MRef, %struct.MRef, %struct.GCRef, %struct.GCRef, ptr, i32 }
%struct.MRef = type { i64 }
%struct.GCRef = type { i64 }
%struct.GCstr = type { %struct.GCRef, i8, i8, i8, i8, i32, i32, i32 }
%union.TValue = type { i64 }

; Function Attrs: alwaysinline nounwind uwtable
define internal void @setintV(ptr noundef %0, i32 noundef %1) #3 {
  %3 = alloca ptr, align 8
  %4 = alloca i32, align 4
  store ptr %0, ptr %3, align 8, !tbaa !25
  store i32 %1, ptr %4, align 4, !tbaa !30
  %5 = load i32, ptr %4, align 4, !tbaa !30
  %6 = sitofp i32 %5 to double
  %7 = load ptr, ptr %3, align 8, !tbaa !25
  store double %6, ptr %7, align 8, !tbaa !22
  ret void
}

; Function Attrs: alwaysinline nounwind uwtable
define internal void @lj_state_checkstack(ptr noundef %0, i32 noundef %1) #3 {
  %3 = alloca ptr, align 8
  %4 = alloca i32, align 4
  store ptr %0, ptr %3, align 8, !tbaa !4
  store i32 %1, ptr %4, align 4, !tbaa !30
  %5 = load ptr, ptr %3, align 8, !tbaa !4
  %6 = getelementptr inbounds nuw %struct.lua_State, ptr %5, i32 0, i32 9
  %7 = getelementptr inbounds nuw %struct.MRef, ptr %6, i32 0, i32 0
  %8 = load i64, ptr %7, align 8, !tbaa !63
  %9 = inttoptr i64 %8 to ptr
  %10 = load ptr, ptr %3, align 8, !tbaa !4
  %11 = getelementptr inbounds nuw %struct.lua_State, ptr %10, i32 0, i32 8
  %12 = load ptr, ptr %11, align 8, !tbaa !21
  %13 = ptrtoint ptr %9 to i64
  %14 = ptrtoint ptr %12 to i64
  %15 = sub i64 %13, %14
  %16 = load i32, ptr %4, align 4, !tbaa !30
  %17 = zext i32 %16 to i64
  %18 = mul nsw i64 %17, 8
  %19 = icmp sle i64 %15, %18
  br i1 %19, label %20, label %23

20:                                               ; preds = %2
  %21 = load ptr, ptr %3, align 8, !tbaa !4
  %22 = load i32, ptr %4, align 4, !tbaa !30
  call void @lj_state_growstack(ptr noundef %21, i32 noundef %22)
  br label %23

23:                                               ; preds = %20, %2
  ret void
}

; Function Attrs: nounwind uwtable
define internal i32 @lj_ffh_string_byte(ptr noundef %0) #0 {
  %2 = alloca i32, align 4
  %3 = alloca ptr, align 8
  %4 = alloca ptr, align 8
  %5 = alloca i32, align 4
  %6 = alloca i32, align 4
  %7 = alloca i32, align 4
  %8 = alloca i32, align 4
  %9 = alloca i32, align 4
  %10 = alloca ptr, align 8
  %11 = alloca i32, align 4
  store ptr %0, ptr %3, align 8, !tbaa !4
  call void @llvm.lifetime.start.p0(i64 8, ptr %4) #7
  %12 = load ptr, ptr %3, align 8, !tbaa !4
  %13 = call ptr @lj_lib_checkstr(ptr noundef %12, i32 noundef 1)
  store ptr %13, ptr %4, align 8, !tbaa !26
  call void @llvm.lifetime.start.p0(i64 4, ptr %5) #7
  %14 = load ptr, ptr %4, align 8, !tbaa !26
  %15 = getelementptr inbounds nuw %struct.GCstr, ptr %14, i32 0, i32 7
  %16 = load i32, ptr %15, align 4, !tbaa !28
  store i32 %16, ptr %5, align 4, !tbaa !30
  call void @llvm.lifetime.start.p0(i64 4, ptr %6) #7
  %17 = load ptr, ptr %3, align 8, !tbaa !4
  %18 = call i32 @lj_lib_optint(ptr noundef %17, i32 noundef 2, i32 noundef 1)
  store i32 %18, ptr %6, align 4, !tbaa !30
  call void @llvm.lifetime.start.p0(i64 4, ptr %7) #7
  %19 = load ptr, ptr %3, align 8, !tbaa !4
  %20 = load i32, ptr %6, align 4, !tbaa !30
  %21 = call i32 @lj_lib_optint(ptr noundef %19, i32 noundef 3, i32 noundef %20)
  store i32 %21, ptr %7, align 4, !tbaa !30
  call void @llvm.lifetime.start.p0(i64 4, ptr %8) #7
  call void @llvm.lifetime.start.p0(i64 4, ptr %9) #7
  call void @llvm.lifetime.start.p0(i64 8, ptr %10) #7
  %22 = load i32, ptr %7, align 4, !tbaa !30
  %23 = icmp slt i32 %22, 0
  br i1 %23, label %24, label %29

24:                                               ; preds = %1
  %25 = load i32, ptr %5, align 4, !tbaa !30
  %26 = add nsw i32 %25, 1
  %27 = load i32, ptr %7, align 4, !tbaa !30
  %28 = add nsw i32 %27, %26
  store i32 %28, ptr %7, align 4, !tbaa !30
  br label %29

29:                                               ; preds = %24, %1
  %30 = load i32, ptr %6, align 4, !tbaa !30
  %31 = icmp slt i32 %30, 0
  br i1 %31, label %32, label %37

32:                                               ; preds = %29
  %33 = load i32, ptr %5, align 4, !tbaa !30
  %34 = add nsw i32 %33, 1
  %35 = load i32, ptr %6, align 4, !tbaa !30
  %36 = add nsw i32 %35, %34
  store i32 %36, ptr %6, align 4, !tbaa !30
  br label %37

37:                                               ; preds = %32, %29
  %38 = load i32, ptr %6, align 4, !tbaa !30
  %39 = icmp sle i32 %38, 0
  br i1 %39, label %40, label %41

40:                                               ; preds = %37
  store i32 1, ptr %6, align 4, !tbaa !30
  br label %41

41:                                               ; preds = %40, %37
  %42 = load i32, ptr %7, align 4, !tbaa !30
  %43 = load i32, ptr %5, align 4, !tbaa !30
  %44 = icmp sgt i32 %42, %43
  br i1 %44, label %45, label %47

45:                                               ; preds = %41
  %46 = load i32, ptr %5, align 4, !tbaa !30
  store i32 %46, ptr %7, align 4, !tbaa !30
  br label %47

47:                                               ; preds = %45, %41
  %48 = load i32, ptr %6, align 4, !tbaa !30
  %49 = load i32, ptr %7, align 4, !tbaa !30
  %50 = icmp sgt i32 %48, %49
  br i1 %50, label %51, label %52

51:                                               ; preds = %47
  store i32 1, ptr %2, align 4
  store i32 1, ptr %11, align 4
  br label %95

52:                                               ; preds = %47
  %53 = load i32, ptr %6, align 4, !tbaa !30
  %54 = add nsw i32 %53, -1
  store i32 %54, ptr %6, align 4, !tbaa !30
  %55 = load i32, ptr %7, align 4, !tbaa !30
  %56 = load i32, ptr %6, align 4, !tbaa !30
  %57 = sub nsw i32 %55, %56
  store i32 %57, ptr %8, align 4, !tbaa !30
  %58 = load i32, ptr %8, align 4, !tbaa !30
  %59 = icmp ugt i32 %58, 8000
  br i1 %59, label %60, label %62

60:                                               ; preds = %52
  %61 = load ptr, ptr %3, align 8, !tbaa !4
  call void @lj_err_caller(ptr noundef %61, i32 noundef 1684) #8
  unreachable

62:                                               ; preds = %52
  %63 = load ptr, ptr %3, align 8, !tbaa !4
  %64 = load i32, ptr %8, align 4, !tbaa !30
  call void @lj_state_checkstack(ptr noundef %63, i32 noundef %64)
  %65 = load ptr, ptr %4, align 8, !tbaa !26
  %66 = getelementptr inbounds %struct.GCstr, ptr %65, i64 1
  %67 = load i32, ptr %6, align 4, !tbaa !30
  %68 = sext i32 %67 to i64
  %69 = getelementptr inbounds i8, ptr %66, i64 %68
  store ptr %69, ptr %10, align 8, !tbaa !31
  store i32 0, ptr %9, align 4, !tbaa !30
  br label %70

70:                                               ; preds = %89, %62
  %71 = load i32, ptr %9, align 4, !tbaa !30
  %72 = load i32, ptr %8, align 4, !tbaa !30
  %73 = icmp slt i32 %71, %72
  br i1 %73, label %74, label %92

74:                                               ; preds = %70
  %75 = load ptr, ptr %3, align 8, !tbaa !4
  %76 = getelementptr inbounds nuw %struct.lua_State, ptr %75, i32 0, i32 7
  %77 = load ptr, ptr %76, align 8, !tbaa !33
  %78 = load i32, ptr %9, align 4, !tbaa !30
  %79 = sext i32 %78 to i64
  %80 = getelementptr inbounds %union.TValue, ptr %77, i64 %79
  %81 = getelementptr inbounds %union.TValue, ptr %80, i64 -1
  %82 = getelementptr inbounds %union.TValue, ptr %81, i64 -1
  %83 = load ptr, ptr %10, align 8, !tbaa !31
  %84 = load i32, ptr %9, align 4, !tbaa !30
  %85 = sext i32 %84 to i64
  %86 = getelementptr inbounds i8, ptr %83, i64 %85
  %87 = load i8, ptr %86, align 1, !tbaa !22
  %88 = zext i8 %87 to i32
  call void @setintV(ptr noundef %82, i32 noundef %88)
  br label %89

89:                                               ; preds = %74
  %90 = load i32, ptr %9, align 4, !tbaa !30
  %91 = add nsw i32 %90, 1
  store i32 %91, ptr %9, align 4, !tbaa !30
  br label %70, !llvm.loop !34

92:                                               ; preds = %70
  %93 = load i32, ptr %8, align 4, !tbaa !30
  %94 = add nsw i32 %93, 1
  store i32 %94, ptr %2, align 4
  store i32 1, ptr %11, align 4
  br label %95

95:                                               ; preds = %92, %51
  call void @llvm.lifetime.end.p0(i64 8, ptr %10) #7
  call void @llvm.lifetime.end.p0(i64 4, ptr %9) #7
  call void @llvm.lifetime.end.p0(i64 4, ptr %8) #7
  call void @llvm.lifetime.end.p0(i64 4, ptr %7) #7
  call void @llvm.lifetime.end.p0(i64 4, ptr %6) #7
  call void @llvm.lifetime.end.p0(i64 4, ptr %5) #7
  call void @llvm.lifetime.end.p0(i64 8, ptr %4) #7
  %96 = load i32, ptr %2, align 4
  ret i32 %96
}