; Function Attrs: nounwind uwtable
define internal range(i32 -2147483646, -2147483648) i32 @lj_ffh_string_byte(ptr noundef %0) #0 {
  %2 = tail call ptr @lj_lib_checkstr(ptr noundef %0, i32 noundef 1) #7
  %3 = getelementptr inbounds nuw i8, ptr %2, i64 20
  %4 = load i32, ptr %3, align 4, !tbaa !19
  %5 = tail call i32 @lj_lib_optint(ptr noundef %0, i32 noundef 2, i32 noundef 1) #7
  %6 = tail call i32 @lj_lib_optint(ptr noundef %0, i32 noundef 3, i32 noundef %5) #7
  %7 = icmp slt i32 %6, 0
  %8 = add nsw i32 %4, 1
  %9 = select i1 %7, i32 %8, i32 0
  %.036 = add nsw i32 %9, %6
  %10 = icmp slt i32 %5, 0
  %11 = select i1 %10, i32 %8, i32 0
  %.035 = add nsw i32 %11, %5
  %spec.store.select = tail call i32 @llvm.smax.i32(i32 %.035, i32 1)
  %.1 = tail call i32 @llvm.smin.i32(i32 %.036, i32 %4)
  %12 = icmp sgt i32 %spec.store.select, %.1
  br i1 %12, label %40, label %13

13:                                               ; preds = %1
  %14 = add nsw i32 %spec.store.select, -1
  %15 = sub nsw i32 %.1, %14
  %16 = icmp ugt i32 %15, 8000
  br i1 %16, label %17, label %18

17:                                               ; preds = %13
  tail call void @lj_err_caller(ptr noundef %0, i32 noundef 1684) #8
  unreachable

18:                                               ; preds = %13
  %19 = getelementptr inbounds nuw i8, ptr %0, i64 48
  %20 = load i64, ptr %19, align 8, !tbaa !21
  %21 = getelementptr inbounds nuw i8, ptr %0, i64 40
  %22 = load ptr, ptr %21, align 8, !tbaa !15
  %23 = ptrtoint ptr %22 to i64
  %24 = sub i64 %20, %23
  %25 = shl nuw nsw i32 %15, 3
  %26 = zext nneg i32 %25 to i64
  %.not.i = icmp sgt i64 %24, %26
  br i1 %.not.i, label %lj_state_checkstack.exit, label %27

27:                                               ; preds = %18
  tail call void @lj_state_growstack(ptr noundef nonnull %0, i32 noundef range(i32 0, 8001) %15) #7
  br label %lj_state_checkstack.exit

lj_state_checkstack.exit:                         ; preds = %18, %27
  %28 = getelementptr inbounds nuw i8, ptr %2, i64 24
  %29 = zext nneg i32 %14 to i64
  %30 = getelementptr inbounds nuw i8, ptr %28, i64 %29
  %.not = icmp eq i32 %.1, %14
  br i1 %.not, label %._crit_edge, label %.lr.ph

.lr.ph:                                           ; preds = %lj_state_checkstack.exit
  %31 = getelementptr inbounds nuw i8, ptr %0, i64 32
  %wide.trip.count = zext nneg i32 %15 to i64
  br label %32

32:                                               ; preds = %.lr.ph, %32
  %indvars.iv = phi i64 [ 0, %.lr.ph ], [ %indvars.iv.next, %32 ]
  %33 = load ptr, ptr %31, align 8, !tbaa !22
  %34 = getelementptr inbounds nuw %union.TValue, ptr %33, i64 %indvars.iv
  %35 = getelementptr inbounds i8, ptr %34, i64 -16
  %36 = getelementptr inbounds nuw i8, ptr %30, i64 %indvars.iv
  %37 = load i8, ptr %36, align 1, !tbaa !16
  %38 = uitofp i8 %37 to double
  store double %38, ptr %35, align 8, !tbaa !16
  %indvars.iv.next = add nuw nsw i64 %indvars.iv, 1
  %exitcond.not = icmp eq i64 %indvars.iv.next, %wide.trip.count
  br i1 %exitcond.not, label %._crit_edge, label %32, !llvm.loop !23

._crit_edge:                                      ; preds = %32, %lj_state_checkstack.exit
  %39 = add nuw nsw i32 %15, 1
  br label %40

40:                                               ; preds = %1, %._crit_edge
  %.0 = phi i32 [ %39, %._crit_edge ], [ 1, %1 ]
  ret i32 %.0
}